target datalayout = "e-m:e-p270:32:32-p271:32:32-p272:64:64-i64:64-i128:128-f80:128-n8:16:32:64-S128"
target triple = "x86_64-pc-linux-gnu"

%struct._GC_arrays = type { i64, i64, i64, ptr, i64, i64, i64, i64, i64, i64, i64, i64, i64, i64, ptr, ptr, ptr, ptr, ptr, ptr, ptr, ptr, i32, i32, i32, i64, i64, i64, i64, i64, ptr, ptr, ptr, i64, i64, i32, i64, i64, ptr, i64, %struct.dl_hashtbl_s, %struct.dl_hashtbl_s, %struct.fnlz_roots_s, i32, ptr, i64, i64, i32, i32, i64, i64, i64, ptr, [64 x ptr], [8 x i8], [64 x ptr], [129 x ptr], [129 x ptr], [129 x ptr], [129 x ptr], [2049 x i64], [129 x ptr], [4096 x i8], [4096 x i64], [4096 x i64], ptr, [2048 x %struct.roots], [512 x %struct.exclusion], [2048 x ptr] }
%struct.dl_hashtbl_s = type { ptr, i64, i32 }
%struct.fnlz_roots_s = type { ptr, ptr }
%struct.roots = type { ptr, ptr, ptr, i32 }
%struct.exclusion = type { ptr, ptr }
%struct.GC_hblk_s = type { [4096 x i8] }
%struct.bi = type { [1024 x ptr], ptr, ptr, i64, ptr }
%struct.hblkhdr = type { ptr, ptr, ptr, i8, i8, i16, i64, i64, ptr, i64, %union.anon }
%union.anon = type { i64, [256 x i8] }

@GC_all_interior_pointers = global i32 1, align 4
@GC_arrays = global %struct._GC_arrays zeroinitializer, align 8
@GC_is_initialized = internal global i32 0, align 4
@GC_is_valid_displacement_print_proc = global ptr @GC_default_is_valid_displacement_print_proc, align 8

; Function Attrs: nounwind uwtable
define internal ptr @GC_find_starting_hblk(ptr noundef %0, ptr noundef %1) #0 {
  %3 = alloca ptr, align 8
  %4 = alloca ptr, align 8
  %5 = alloca ptr, align 8
  store ptr %0, ptr %3, align 8
  store ptr %1, ptr %4, align 8
  %6 = load ptr, ptr %4, align 8
  %7 = load ptr, ptr %6, align 8
  store ptr %7, ptr %5, align 8
  br label %8

8:                                                ; preds = %18, %2
  %9 = load ptr, ptr %5, align 8
  %10 = ptrtoint ptr %9 to i64
  %11 = icmp ule i64 %10, 4095
  br i1 %11, label %12, label %21

12:                                               ; preds = %8
  %13 = load ptr, ptr %3, align 8
  %14 = load ptr, ptr %5, align 8
  %15 = ptrtoint ptr %14 to i64
  %16 = sub i64 0, %15
  %17 = getelementptr inbounds %struct.GC_hblk_s, ptr %13, i64 %16
  store ptr %17, ptr %3, align 8
  br label %18

18:                                               ; preds = %12
  %19 = load ptr, ptr %3, align 8
  %20 = call ptr @GC_find_header(ptr noundef %19)
  store ptr %20, ptr %5, align 8
  br label %8, !llvm.loop !10

21:                                               ; preds = %8
  %22 = load ptr, ptr %5, align 8
  %23 = load ptr, ptr %4, align 8
  store ptr %22, ptr %23, align 8
  %24 = load ptr, ptr %3, align 8
  ret ptr %24
}

; Function Attrs: nounwind uwtable
define internal ptr @GC_find_header(ptr noundef %0) #0 {
  %2 = alloca ptr, align 8
  %3 = alloca ptr, align 8
  %4 = alloca ptr, align 8
  %5 = alloca ptr, align 8
  %6 = alloca i64, align 8
  %7 = alloca ptr, align 8
  store ptr %0, ptr %2, align 8
  br label %8

8:                                                ; preds = %1
  br label %9

9:                                                ; preds = %8
  br label %10

10:                                               ; preds = %9
  %11 = load ptr, ptr %2, align 8
  %12 = ptrtoint ptr %11 to i64
  %13 = lshr i64 %12, 22
  store i64 %13, ptr %6, align 8
  %14 = load i64, ptr %6, align 8
  %15 = and i64 %14, 2047
  %16 = getelementptr inbounds %struct._GC_arrays, ptr @GC_arrays, i32 0, i32 68
  %17 = getelementptr inbounds [2048 x ptr], ptr %16, i64 0, i64 %15
  %18 = load ptr, ptr %17, align 8
  store ptr %18, ptr %7, align 8
  br label %19

19:                                               ; preds = %32, %10
  %20 = load ptr, ptr %7, align 8
  %21 = getelementptr inbounds %struct.bi, ptr %20, i32 0, i32 3
  %22 = load i64, ptr %21, align 8
  %23 = load i64, ptr %6, align 8
  %24 = icmp ne i64 %22, %23
  br i1 %24, label %25, label %30

25:                                               ; preds = %19
  %26 = load ptr, ptr %7, align 8
  %27 = getelementptr inbounds %struct._GC_arrays, ptr @GC_arrays, i32 0, i32 30
  %28 = load ptr, ptr %27, align 8
  %29 = icmp ne ptr %26, %28
  br label %30

30:                                               ; preds = %25, %19
  %31 = phi i1 [ false, %19 ], [ %29, %25 ]
  br i1 %31, label %32, label %36

32:                                               ; preds = %30
  %33 = load ptr, ptr %7, align 8
  %34 = getelementptr inbounds %struct.bi, ptr %33, i32 0, i32 4
  %35 = load ptr, ptr %34, align 8
  store ptr %35, ptr %7, align 8
  br label %19, !llvm.loop !9

36:                                               ; preds = %30
  %37 = load ptr, ptr %7, align 8
  store ptr %37, ptr %5, align 8
  br label %38

38:                                               ; preds = %36
  %39 = load ptr, ptr %5, align 8
  %40 = getelementptr inbounds %struct.bi, ptr %39, i32 0, i32 0
  %41 = load ptr, ptr %2, align 8
  %42 = ptrtoint ptr %41 to i64
  %43 = lshr i64 %42, 12
  %44 = and i64 %43, 1023
  %45 = getelementptr inbounds [1024 x ptr], ptr %40, i64 0, i64 %44
  store ptr %45, ptr %4, align 8
  br label %46

46:                                               ; preds = %38
  %47 = load ptr, ptr %4, align 8
  %48 = load ptr, ptr %47, align 8
  store ptr %48, ptr %3, align 8
  br label %49

49:                                               ; preds = %46
  %50 = load ptr, ptr %3, align 8
  ret ptr %50
}

; Function Attrs: nounwind uwtable
define ptr @GC_is_valid_displacement(ptr noundef %0) #0 {
  %2 = alloca ptr, align 8
  %3 = alloca ptr, align 8
  %4 = alloca ptr, align 8
  %5 = alloca i64, align 8
  %6 = alloca i64, align 8
  %7 = alloca ptr, align 8
  %8 = alloca i64, align 8
  store ptr %0, ptr %3, align 8
  %9 = load i32, ptr @GC_is_initialized, align 4
  %10 = sext i32 %9 to i64
  %11 = icmp ne i64 %10, 0
  br i1 %11, label %13, label %12

12:                                               ; preds = %1
  call void @GC_init()
  br label %13

13:                                               ; preds = %12, %1
  %14 = load ptr, ptr %3, align 8
  %15 = icmp eq ptr null, %14
  br i1 %15, label %16, label %17

16:                                               ; preds = %13
  store ptr null, ptr %2, align 8
  br label %92

17:                                               ; preds = %13
  %18 = load ptr, ptr %3, align 8
  %19 = ptrtoint ptr %18 to i64
  %20 = inttoptr i64 %19 to ptr
  %21 = call ptr @GC_find_header(ptr noundef %20)
  store ptr %21, ptr %4, align 8
  %22 = load ptr, ptr %4, align 8
  %23 = icmp eq ptr null, %22
  br i1 %23, label %24, label %26

24:                                               ; preds = %17
  %25 = load ptr, ptr %3, align 8
  store ptr %25, ptr %2, align 8
  br label %92

26:                                               ; preds = %17
  %27 = load ptr, ptr %3, align 8
  %28 = ptrtoint ptr %27 to i64
  %29 = and i64 %28, -4096
  %30 = inttoptr i64 %29 to ptr
  store ptr %30, ptr %7, align 8
  %31 = load i32, ptr @GC_all_interior_pointers, align 4
  %32 = icmp ne i32 %31, 0
  br i1 %32, label %33, label %36

33:                                               ; preds = %26
  %34 = load ptr, ptr %7, align 8
  %35 = call ptr @GC_find_starting_hblk(ptr noundef %34, ptr noundef %4)
  store ptr %35, ptr %7, align 8
  br label %42

36:                                               ; preds = %26
  %37 = load ptr, ptr %4, align 8
  %38 = ptrtoint ptr %37 to i64
  %39 = icmp ule i64 %38, 4095
  br i1 %39, label %40, label %41

40:                                               ; preds = %36
  br label %88

41:                                               ; preds = %36
  br label %42

42:                                               ; preds = %41, %33
  %43 = load ptr, ptr %4, align 8
  %44 = getelementptr inbounds %struct.hblkhdr, ptr %43, i32 0, i32 6
  %45 = load i64, ptr %44, align 8
  store i64 %45, ptr %8, align 8
  %46 = load ptr, ptr %3, align 8
  %47 = ptrtoint ptr %46 to i64
  %48 = and i64 %47, 4095
  store i64 %48, ptr %5, align 8
  %49 = load i64, ptr %5, align 8
  %50 = load i64, ptr %8, align 8
  %51 = urem i64 %49, %50
  store i64 %51, ptr %6, align 8
  %52 = load i64, ptr %8, align 8
  %53 = icmp ugt i64 %52, 2048
  br i1 %53, label %54, label %62

54:                                               ; preds = %42
  %55 = load ptr, ptr %3, align 8
  %56 = ptrtoint ptr %55 to i64
  %57 = load ptr, ptr %7, align 8
  %58 = ptrtoint ptr %57 to i64
  %59 = load i64, ptr %8, align 8
  %60 = add i64 %58, %59
  %61 = icmp uge i64 %56, %60
  br i1 %61, label %85, label %62

62:                                               ; preds = %54, %42
  %63 = load i64, ptr %6, align 8
  %64 = getelementptr inbounds %struct._GC_arrays, ptr @GC_arrays, i32 0, i32 62
  %65 = getelementptr inbounds [4096 x i8], ptr %64, i64 0, i64 %63
  %66 = load i8, ptr %65, align 1
  %67 = icmp ne i8 %66, 0
  br i1 %67, label %68, label %85

68:                                               ; preds = %62
  %69 = load ptr, ptr %3, align 8
  %70 = ptrtoint ptr %69 to i64
  %71 = load i64, ptr %8, align 8
  %72 = load i64, ptr %6, align 8
  %73 = sub i64 %71, %72
  %74 = add i64 %70, %73
  %75 = load ptr, ptr %7, align 8
  %76 = getelementptr inbounds %struct.GC_hblk_s, ptr %75, i64 1
  %77 = ptrtoint ptr %76 to i64
  %78 = icmp ugt i64 %74, %77
  br i1 %78, label %79, label %86

79:                                               ; preds = %68
  %80 = load ptr, ptr %7, align 8
  %81 = getelementptr inbounds %struct.GC_hblk_s, ptr %80, i64 1
  %82 = call ptr @GC_find_header(ptr noundef %81)
  %83 = ptrtoint ptr %82 to i64
  %84 = icmp ule i64 %83, 4095
  br i1 %84, label %86, label %85

85:                                               ; preds = %79, %62, %54
  br label %88

86:                                               ; preds = %79, %68
  %87 = load ptr, ptr %3, align 8
  store ptr %87, ptr %2, align 8
  br label %92

88:                                               ; preds = %85, %40
  %89 = load ptr, ptr @GC_is_valid_displacement_print_proc, align 8
  %90 = load ptr, ptr %3, align 8
  call void %89(ptr noundef %90)
  %91 = load ptr, ptr %3, align 8
  store ptr %91, ptr %2, align 8
  br label %92

92:                                               ; preds = %88, %86, %24, %16
  %93 = load ptr, ptr %2, align 8
  ret ptr %93
}