; Function Attrs: nounwind uwtable
define noundef ptr @GC_is_valid_displacement(ptr noundef returned %0) local_unnamed_addr #1 {
  %.b = load i1, ptr @GC_is_initialized, align 4
  br i1 %.b, label %3, label %2

2:                                                ; preds = %1
  tail call void @GC_init()
  br label %3

3:                                                ; preds = %2, %1
  %4 = icmp eq ptr %0, null
  br i1 %4, label %82, label %5

5:                                                ; preds = %3
  %6 = ptrtoint ptr %0 to i64
  %7 = lshr i64 %6, 22
  %8 = and i64 %7, 2047
  %9 = getelementptr inbounds nuw [2048 x ptr], ptr getelementptr inbounds nuw (i8, ptr @GC_arrays, i64 166400), i64 0, i64 %8
  %10 = load ptr, ptr getelementptr inbounds nuw (i8, ptr @GC_arrays, i64 232), align 8
  br label %11

11:                                               ; preds = %11, %5
  %.0.in.i = phi ptr [ %9, %5 ], [ %17, %11 ]
  %.0.i = load ptr, ptr %.0.in.i, align 8
  %12 = getelementptr inbounds nuw i8, ptr %.0.i, i64 8208
  %13 = load i64, ptr %12, align 8
  %14 = icmp ne i64 %13, %7
  %15 = icmp ne ptr %.0.i, %10
  %16 = select i1 %14, i1 %15, i1 false
  %17 = getelementptr inbounds nuw i8, ptr %.0.i, i64 8216
  br i1 %16, label %11, label %GC_find_header.exit, !llvm.loop !15

GC_find_header.exit:                              ; preds = %11
  %18 = lshr i64 %6, 12
  %19 = and i64 %18, 1023
  %20 = getelementptr inbounds nuw [1024 x ptr], ptr %.0.i, i64 0, i64 %19
  %21 = load ptr, ptr %20, align 8
  %22 = icmp eq ptr %21, null
  br i1 %22, label %82, label %23

23:                                               ; preds = %GC_find_header.exit
  %24 = and i64 %6, -4096
  %25 = inttoptr i64 %24 to ptr
  %26 = load i32, ptr @GC_all_interior_pointers, align 4
  %.not = icmp eq i32 %26, 0
  %27 = icmp ult ptr %21, inttoptr (i64 4096 to ptr)
  br i1 %.not, label %47, label %28

28:                                               ; preds = %23
  br i1 %27, label %.lr.ph.i, label %GC_find_starting_hblk.exit

.lr.ph.i:                                         ; preds = %28, %GC_find_header.exit.i
  %.012.i = phi ptr [ %.0.i28, %GC_find_header.exit.i ], [ %21, %28 ]
  %.0811.i = phi ptr [ %31, %GC_find_header.exit.i ], [ %25, %28 ]
  %29 = ptrtoint ptr %.012.i to i64
  %30 = sub nsw i64 0, %29
  %31 = getelementptr inbounds %struct.GC_hblk_s, ptr %.0811.i, i64 %30
  %32 = ptrtoint ptr %31 to i64
  %33 = lshr i64 %32, 22
  %34 = and i64 %33, 2047
  %35 = getelementptr inbounds nuw [2048 x ptr], ptr getelementptr inbounds nuw (i8, ptr @GC_arrays, i64 166400), i64 0, i64 %34
  br label %36

36:                                               ; preds = %36, %.lr.ph.i
  %.0.in.i.i = phi ptr [ %35, %.lr.ph.i ], [ %42, %36 ]
  %.0.i.i = load ptr, ptr %.0.in.i.i, align 8
  %37 = getelementptr inbounds nuw i8, ptr %.0.i.i, i64 8208
  %38 = load i64, ptr %37, align 8
  %39 = icmp ne i64 %38, %33
  %40 = icmp ne ptr %.0.i.i, %10
  %41 = select i1 %39, i1 %40, i1 false
  %42 = getelementptr inbounds nuw i8, ptr %.0.i.i, i64 8216
  br i1 %41, label %36, label %GC_find_header.exit.i, !llvm.loop !15

GC_find_header.exit.i:                            ; preds = %36
  %43 = lshr i64 %32, 12
  %44 = and i64 %43, 1023
  %45 = getelementptr inbounds nuw [1024 x ptr], ptr %.0.i.i, i64 0, i64 %44
  %.0.i28 = load ptr, ptr %45, align 8
  %46 = icmp ult ptr %.0.i28, inttoptr (i64 4096 to ptr)
  br i1 %46, label %.lr.ph.i, label %GC_find_starting_hblk.exit, !llvm.loop !19

47:                                               ; preds = %23
  br i1 %27, label %80, label %GC_find_starting_hblk.exit

GC_find_starting_hblk.exit:                       ; preds = %GC_find_header.exit.i, %28, %47
  %.032 = phi ptr [ %21, %47 ], [ %21, %28 ], [ %.0.i28, %GC_find_header.exit.i ]
  %.021 = phi ptr [ %25, %47 ], [ %25, %28 ], [ %31, %GC_find_header.exit.i ]
  %48 = getelementptr inbounds nuw i8, ptr %.032, i64 32
  %49 = load i64, ptr %48, align 8
  %50 = and i64 %6, 4095
  %51 = urem i64 %50, %49
  %52 = icmp ult i64 %49, 2049
  %53 = ptrtoint ptr %.021 to i64
  %54 = add i64 %49, %53
  %.not25 = icmp ugt i64 %54, %6
  %or.cond = or i1 %52, %.not25
  br i1 %or.cond, label %55, label %80

55:                                               ; preds = %GC_find_starting_hblk.exit
  %56 = getelementptr inbounds nuw [4096 x i8], ptr getelementptr inbounds nuw (i8, ptr @GC_arrays, i64 23032), i64 0, i64 %51
  %57 = load i8, ptr %56, align 1
  %.not26 = icmp eq i8 %57, 0
  br i1 %.not26, label %80, label %58

58:                                               ; preds = %55
  %59 = add i64 %49, %6
  %60 = sub i64 %59, %51
  %61 = getelementptr inbounds nuw i8, ptr %.021, i64 4096
  %62 = ptrtoint ptr %61 to i64
  %63 = icmp ugt i64 %60, %62
  br i1 %63, label %64, label %82

64:                                               ; preds = %58
  %65 = lshr i64 %62, 22
  %66 = and i64 %65, 2047
  %67 = getelementptr inbounds nuw [2048 x ptr], ptr getelementptr inbounds nuw (i8, ptr @GC_arrays, i64 166400), i64 0, i64 %66
  br label %68

68:                                               ; preds = %68, %64
  %.0.in.i29 = phi ptr [ %67, %64 ], [ %74, %68 ]
  %.0.i30 = load ptr, ptr %.0.in.i29, align 8
  %69 = getelementptr inbounds nuw i8, ptr %.0.i30, i64 8208
  %70 = load i64, ptr %69, align 8
  %71 = icmp ne i64 %70, %65
  %72 = icmp ne ptr %.0.i30, %10
  %73 = select i1 %71, i1 %72, i1 false
  %74 = getelementptr inbounds nuw i8, ptr %.0.i30, i64 8216
  br i1 %73, label %68, label %GC_find_header.exit31, !llvm.loop !15

GC_find_header.exit31:                            ; preds = %68
  %75 = lshr i64 %62, 12
  %76 = and i64 %75, 1023
  %77 = getelementptr inbounds nuw [1024 x ptr], ptr %.0.i30, i64 0, i64 %76
  %78 = load ptr, ptr %77, align 8
  %79 = icmp ult ptr %78, inttoptr (i64 4096 to ptr)
  br i1 %79, label %82, label %80

80:                                               ; preds = %GC_find_starting_hblk.exit, %55, %GC_find_header.exit31, %47
  %81 = load ptr, ptr @GC_is_valid_displacement_print_proc, align 8
  tail call void %81(ptr noundef nonnull %0) #41
  br label %82

82:                                               ; preds = %58, %GC_find_header.exit31, %GC_find_header.exit, %3, %80
  ret ptr %0
}